-----BEGIN PRIVATE KEY-----
MIIEvwIBADANBgkqhkiG9w0BAQEFAASCBKkwggSlAgEAAoIBAQC2QMRO4WSKzWOC
CcP0mmUL6FZl4y40c3L0UkSairZVg10XmVwmbUVfICRZ1IoCLkxSL66a7atGyMFP
G/q8egC1ALkBGOKaVfq9v7yXUrS5ftzpm0At6TC7Do7KPqgVloxyFyHLKkkjX+bg
YQOUtU3Nj9c0OFsAoQqff9nw58VdERMoZwU2N3IHYSMqQfr5A+o4Nzb3w2EwQhRy
nr8b8ZpHZOoxuB8arMoneBFcbeV7wiqPR4bIKX43HwCm7bKyG2cChGMystXgJJYT
q0CmtTsEhnjm8PzrUAbDaH1VDKSsb0fNM26y/3gZRO4CXDLtUDNPqFz2rqVPIMTH
H3nkxBqdAgMBAAECggEBAJcXwqeSfIQGGoToC6hxh2wDxfzaBqg9PgQHYBCvBtKG
AVtbLOY+mNBwGTLP3UpJj8Ri+2I9v00Dih9HlutCSevFGZsrQlGpDiLZHkRlsKZH
4mVY7DAjrt6lBwPsRfT/xpefTcjc2Z2WGBXU198lH8dXhJYqUmeHGwN4PvpVa23n
H2Nx8fOb+2LprEuWs2A35x+7chJW7JxbWWfV03nMtqQ88jIaN9zii2OJ1qDP9jrL
e+G7cODxCMksro9S6+/HvX/bClbmM/915OgiFNRPRePD38Who2eNsmgwI5QgcMmv
gBCFWZnOOeyA0MSG1Hvv7LKzG7jG5zlm0M3h96eBhoECgYEA4tA5Mb7BymnY5GlV
fmMr5PP4ZV+T24Pnwpw5zY5S++bndapABSVPIpM4+wWXXjogNfDunmCTPNQP/ruH
iFiH+Pfqa7wbHdaT5rVKzHAu9SLrcaTQxB+ttn76kJF3DYt2W+f2Fsaz0be/hdIj
lPw/PoMZ6xlMdzqfve54WBvCi2UCgYEAzbSeIRcpI+rIC9d4OU5qsRQPZBWgjZeo
rXT/BZIRDlyg237MK0OqBY9Iq5OqCO4hyGDyWTi0iNg+LtnYcFXTrG1bjbjRmn8C
5YtjbWELBYEP/t0/5iBiWyu/HoThRqRHVgElPzMa1lV72HRC08sprj311BiqAZl6
vYJNIUAiCtkCgYEAhK2rl2bwM/kBEHRxt5JJvg/dcWectZ+Otm/u/EjSUFr9cP5b
nub5SM94WJcnuc4kw4kh/PGfj8i5ZpjKqr6nI8PalJUgA69fK2lHzRmeznVT51Gz
cdbaJlRXPLRrQTggz5h8g0xPKlHjrmODvwZj9Kx6P+W3rlNT2KYkLd5nSmUCgYEA
jGZ6A4XmW5B057gyY5LFOYXCl4I3ak0YIQQYx/mRUKciV44s1l7BnjfU1t7bkGrQ
fg7FeuY8Oqa1ko63rry11Bt0AMAjt/p2xKululMhDamwfDkQ0wZJe4bZVIBHrkqU
MfxoKsG70IzaEbwQnLQvB7Fcp14KMztJTi2wbUBzu8kCgYAtRk/DKzAsL26gd3Ha
Eqv1465ldcPsDBdNH9qZ80pMSa+A/bsMw4kNsimd+Yksx+NAiWYhJ0nr0bsGatwD
6i+8EpdIC3KFyzRXJ/FsVXyNbpEpMkVggrv2q2Xe4Gjh5uqhHtww0fVxxStnIw3q
SBj2DPPXFulRKHGWFSoMCcW81w==
-----END PRIVATE KEY-----
Certificate:
    Data:
        Version: 3 (0x2)
        Serial Number: 2 (0x2)
    Signature Algorithm: sha256WithRSAEncryption
        Issuer: CN=BlackNet CA
        Validity
            Not Before: May 27 15:10:30 2017 GMT
            Not After : May 25 15:10:30 2027 GMT
        Subject: CN=honeypot_00
        Subject Public Key Info:
            Public Key Algorithm: rsaEncryption
                Public-Key: (2048 bit)
                Modulus:
                    00:b6:40:c4:4e:e1:64:8a:cd:63:82:09:c3:f4:9a:
                    65:0b:e8:56:65:e3:2e:34:73:72:f4:52:44:9a:8a:
                    b6:55:83:5d:17:99:5c:26:6d:45:5f:20:24:59:d4:
                    8a:02:2e:4c:52:2f:ae:9a:ed:ab:46:c8:c1:4f:1b:
                    fa:bc:7a:00:b5:00:b9:01:18:e2:9a:55:fa:bd:bf:
                    bc:97:52:b4:b9:7e:dc:e9:9b:40:2d:e9:30:bb:0e:
                    8e:ca:3e:a8:15:96:8c:72:17:21:cb:2a:49:23:5f:
                    e6:e0:61:03:94:b5:4d:cd:8f:d7:34:38:5b:00:a1:
                    0a:9f:7f:d9:f0:e7:c5:5d:11:13:28:67:05:36:37:
                    72:07:61:23:2a:41:fa:f9:03:ea:38:37:36:f7:c3:
                    61:30:42:14:72:9e:bf:1b:f1:9a:47:64:ea:31:b8:
                    1f:1a:ac:ca:27:78:11:5c:6d:e5:7b:c2:2a:8f:47:
                    86:c8:29:7e:37:1f:00:a6:ed:b2:b2:1b:67:02:84:
                    63:32:b2:d5:e0:24:96:13:ab:40:a6:b5:3b:04:86:
                    78:e6:f0:fc:eb:50:06:c3:68:7d:55:0c:a4:ac:6f:
                    47:cd:33:6e:b2:ff:78:19:44:ee:02:5c:32:ed:50:
                    33:4f:a8:5c:f6:ae:a5:4f:20:c4:c7:1f:79:e4:c4:
                    1a:9d
                Exponent: 65537 (0x10001)
        X509v3 extensions:
            X509v3 Basic Constraints: 
                CA:FALSE
            X509v3 Subject Key Identifier: 
                14:6D:30:E9:AE:4E:7B:E5:60:61:D7:A4:5E:A8:86:2C:A4:9A:46:61
            X509v3 Authority Key Identifier: 
                keyid:A8:F1:56:01:F4:C7:FB:71:16:86:07:20:A4:7B:83:BD:A2:BB:FC:6A
                DirName:/CN=BlackNet CA
                serial:B8:67:9C:C6:5F:0D:F3:86

            X509v3 Extended Key Usage: 
                TLS Web Client Authentication
            X509v3 Key Usage: 
                Digital Signature
    Signature Algorithm: sha256WithRSAEncryption
         8d:d4:91:90:cd:09:47:87:d9:4a:9a:06:eb:46:39:ec:34:c2:
         8a:f5:2e:96:7a:0b:74:54:71:65:8d:e8:bc:f7:ef:20:a0:21:
         19:05:1e:9c:dd:c1:17:55:64:6c:64:9f:14:3c:6e:9b:dc:b6:
         43:fe:45:2e:a9:88:0b:9f:33:b5:10:bb:7c:44:b2:ab:9a:b1:
         b8:6d:42:d5:da:fe:46:53:12:9b:e6:e7:9f:55:59:6f:a2:9a:
         0d:42:99:d8:fb:6a:ce:3b:40:88:0b:7f:26:25:3f:7f:e9:aa:
         9b:6c:aa:aa:99:72:53:24:e3:50:33:ef:3f:ae:b7:86:e7:06:
         8d:f5:45:dc:1b:9b:21:ea:86:b2:83:69:ee:fc:4b:02:58:af:
         af:37:c2:9a:6e:5d:d0:0b:e5:1f:c4:db:bf:2b:1a:75:8d:f0:
         8a:d5:63:c3:c8:06:d4:2b:6b:01:af:96:58:fc:e8:0e:75:9b:
         eb:55:76:92:c7:25:92:cf:d1:bd:37:ca:f0:a0:1e:08:3c:77:
         e7:e8:a5:b9:db:8c:de:49:2c:48:33:ab:da:be:af:84:e9:56:
         72:a1:b9:6f:84:f9:2c:60:ca:50:9b:75:9e:2a:de:e6:85:b3:
         5e:ad:4a:a7:78:d5:1d:e3:76:94:67:c0:03:fc:f1:4f:62:b0:
         c5:c8:04:f2
-----BEGIN CERTIFICATE-----
MIIDPzCCAiegAwIBAgIBAjANBgkqhkiG9w0BAQsFADAWMRQwEgYDVQQDDAtCbGFj
a05ldCBDQTAeFw0xNzA1MjcxNTEwMzBaFw0yNzA1MjUxNTEwMzBaMBYxFDASBgNV
BAMMC2hvbmV5cG90XzAwMIIBIjANBgkqhkiG9w0BAQEFAAOCAQ8AMIIBCgKCAQEA
tkDETuFkis1jggnD9JplC+hWZeMuNHNy9FJEmoq2VYNdF5lcJm1FXyAkWdSKAi5M
Ui+umu2rRsjBTxv6vHoAtQC5ARjimlX6vb+8l1K0uX7c6ZtALekwuw6Oyj6oFZaM
chchyypJI1/m4GEDlLVNzY/XNDhbAKEKn3/Z8OfFXRETKGcFNjdyB2EjKkH6+QPq
ODc298NhMEIUcp6/G/GaR2TqMbgfGqzKJ3gRXG3le8Iqj0eGyCl+Nx8Apu2yshtn
AoRjMrLV4CSWE6tAprU7BIZ45vD861AGw2h9VQykrG9HzTNusv94GUTuAlwy7VAz
T6hc9q6lTyDExx955MQanQIDAQABo4GXMIGUMAkGA1UdEwQCMAAwHQYDVR0OBBYE
FBRtMOmuTnvlYGHXpF6ohiykmkZhMEYGA1UdIwQ/MD2AFKjxVgH0x/txFoYHIKR7
g72iu/xqoRqkGDAWMRQwEgYDVQQDDAtCbGFja05ldCBDQYIJALhnnMZfDfOGMBMG
A1UdJQQMMAoGCCsGAQUFBwMCMAsGA1UdDwQEAwIHgDANBgkqhkiG9w0BAQsFAAOC
AQEAjdSRkM0JR4fZSpoG60Y57DTCivUulnoLdFRxZY3ovPfvIKAhGQUenN3BF1Vk
bGSfFDxum9y2Q/5FLqmIC58ztRC7fESyq5qxuG1C1dr+RlMSm+bnn1VZb6KaDUKZ
2PtqzjtAiAt/JiU/f+mqm2yqqplyUyTjUDPvP663hucGjfVF3BubIeqGsoNp7vxL
AlivrzfCmm5d0AvlH8TbvysadY3witVjw8gG1CtrAa+WWPzoDnWb61V2ksclks/R
vTfK8KAeCDx35+iluduM3kksSDOr2r6vhOlWcqG5b4T5LGDKUJt1nire5oWzXq1K
p3jVHeN2lGfAA/zxT2KwxcgE8g==
-----END CERTIFICATE-----
