-----BEGIN PRIVATE KEY-----
MIIEvgIBADANBgkqhkiG9w0BAQEFAASCBKgwggSkAgEAAoIBAQC9ImuyYumEj2tj
zt9kwfAg2JdwQqZ+YaQT6OjLXdirHy5NnkurCiAYNqNxsDwYR4EchShZOmJ2SIu7
Hu5PUEmr70MtsXnJN98bhs2phjByb5UtT0wCrj6baLXmtkZ/1HEu8aY0NAIRT5f4
Ol/rkinyMHjGr23AZC1PDg65G73lTgl5lgnkIkiIlc+Hz/j6IHMI9kHchXt9pS1R
tlsSyONkAkD85OTW4S2+g5+0PotwUxk7Hfb8J0cwYc0qDlg5N7dVQJgzgVL3sqXf
qjnyCz67TzCiee9KODO9506vWMYwNNH6kgnBaSDcQxkEeWtxILrAOdhNny0Gdolc
LAKg8GkHAgMBAAECggEAEMyG3lBUx3ZppnLQesWTC4fRY6I34Y/QoAgW7UFHpmNd
nH1L4URD94Ka39U0cT+goyTcoZhC+JiW+KbVqevKr1/QCrXxyEKTKYG+sKj/kpqA
mIarjK1nWCxjw7s65c27w9yo04gvCtST/fNJY8YWvbE6eQNJ70W2lIf+HMjvA/fU
TrnOHiQepSV5zQth8+9mMmZOvemayaR4j4jPrtCgVoxlaQQyXFyJEZxHH4orsoPS
DQYLQto3vzYVV7MwR7cR+ljfSenfsBUpdXJQtxhi9TdSMm9/k/hC7XPbYracodGY
ooNf3r9AOLyzGfD/a83Dufi5iJS85b7NYfaV4Sy+0QKBgQDo5mMqI2692BWBX+IP
76KyGetpYqmVhHS986JGHV/OXCyPoEmSyoAUFQy0k1TqoLDk+0iE4oIqKPObuyo5
/ajotgTFumXjMnnLIdV2IJEG8DwAfnrUTcy7w5NJzSoNmuUBjGVrn7OSKnUCeF2/
65YEQmIP1sqNDYO449hpXSu6eQKBgQDP5MY1pT+JDPBoyMBZN3dIcOOnhJ5XYjLu
0UlJWoxCJSLgk6QwBz0Ez0Vdvr0+RMUkbIMPouznfPLwwAIoC0w8o2sSQGlXJO0k
r9sXOlFyhbVRwEQmwHCeYkJkB0G0Yuby8ubOgL3qK7eqgeaSX+NOflnOTMZmE0LO
U0xC22xffwKBgQCizYm8RxB+fLJrwY7Q/P6J6Tx6apGJBxJkRg7FXHtAUYaEz9Me
XZeychRzlhnh+XouVsmWuo+q0P2ZevhFmV+dbL9hSK84Zmxk5r3E2XcHlp8a6U8L
YWcgSdKH4HbpE8HJl06+MODh5/PrSiCerBwt1gmecNMeTrgpYnxBCvQqYQKBgGkM
lQuugLhkDWclaeyrFl9IjACuBsTpHguHPZ0PYChcU49fi2upfK/dfJOuOjoozeVl
36QbE9K1VJ1KqMxLSS6q9QO4AILEagBLzE2kbluMLN8uZEGgpEekJyAcepsIDuNc
0jwu2chmZtyF31i/k0Cqn/6a1PXnba6McNCnx89JAoGBAJgaFSWg2SnmDd4d9eAC
62qFvAlQwbBaX8XiDqsOxK+XKmVIBDRMUxdYGT81W6ZxP8zBtMLUFDIpI7cfuLYJ
s4ahgg3RSZ0uczF48tQzxlpjS+drfIHc3+Gh5MmF+56D7WNhzoxzD8PTaKo67uPv
cbiQg+0V0rtGcCpP3AtqrBH3
-----END PRIVATE KEY-----
Certificate:
    Data:
        Version: 3 (0x2)
        Serial Number: 1 (0x1)
    Signature Algorithm: sha256WithRSAEncryption
        Issuer: CN=BlackNet CA
        Validity
            Not Before: May 27 15:09:25 2017 GMT
            Not After : May 25 15:09:25 2027 GMT
        Subject: CN=maestro
        Subject Public Key Info:
            Public Key Algorithm: rsaEncryption
                Public-Key: (2048 bit)
                Modulus:
                    00:bd:22:6b:b2:62:e9:84:8f:6b:63:ce:df:64:c1:
                    f0:20:d8:97:70:42:a6:7e:61:a4:13:e8:e8:cb:5d:
                    d8:ab:1f:2e:4d:9e:4b:ab:0a:20:18:36:a3:71:b0:
                    3c:18:47:81:1c:85:28:59:3a:62:76:48:8b:bb:1e:
                    ee:4f:50:49:ab:ef:43:2d:b1:79:c9:37:df:1b:86:
                    cd:a9:86:30:72:6f:95:2d:4f:4c:02:ae:3e:9b:68:
                    b5:e6:b6:46:7f:d4:71:2e:f1:a6:34:34:02:11:4f:
                    97:f8:3a:5f:eb:92:29:f2:30:78:c6:af:6d:c0:64:
                    2d:4f:0e:0e:b9:1b:bd:e5:4e:09:79:96:09:e4:22:
                    48:88:95:cf:87:cf:f8:fa:20:73:08:f6:41:dc:85:
                    7b:7d:a5:2d:51:b6:5b:12:c8:e3:64:02:40:fc:e4:
                    e4:d6:e1:2d:be:83:9f:b4:3e:8b:70:53:19:3b:1d:
                    f6:fc:27:47:30:61:cd:2a:0e:58:39:37:b7:55:40:
                    98:33:81:52:f7:b2:a5:df:aa:39:f2:0b:3e:bb:4f:
                    30:a2:79:ef:4a:38:33:bd:e7:4e:af:58:c6:30:34:
                    d1:fa:92:09:c1:69:20:dc:43:19:04:79:6b:71:20:
                    ba:c0:39:d8:4d:9f:2d:06:76:89:5c:2c:02:a0:f0:
                    69:07
                Exponent: 65537 (0x10001)
        X509v3 extensions:
            X509v3 Basic Constraints: 
                CA:FALSE
            X509v3 Subject Key Identifier: 
                BF:27:80:94:8C:96:77:FD:BE:56:C2:2B:68:1A:25:A0:4B:72:34:9C
            X509v3 Authority Key Identifier: 
                keyid:A8:F1:56:01:F4:C7:FB:71:16:86:07:20:A4:7B:83:BD:A2:BB:FC:6A
                DirName:/CN=BlackNet CA
                serial:B8:67:9C:C6:5F:0D:F3:86

            X509v3 Extended Key Usage: 
                TLS Web Server Authentication
            X509v3 Key Usage: 
                Digital Signature, Key Encipherment
    Signature Algorithm: sha256WithRSAEncryption
         bf:cc:a6:c2:01:45:b8:ee:3b:a3:f2:8e:3a:8a:32:a6:61:eb:
         68:2b:a3:75:37:a6:43:1d:e9:42:a6:eb:4e:09:7a:16:04:be:
         8d:54:fb:84:a8:7b:bb:81:a9:49:2f:75:84:d4:10:dd:36:ca:
         e1:da:75:51:b8:73:8d:49:c7:f2:00:aa:0d:69:fd:f4:c5:38:
         98:b8:5a:a7:d4:82:04:21:f5:fa:da:21:44:d2:f5:c1:5c:be:
         a6:0c:5c:1a:a7:9c:06:f0:a2:81:f1:20:dc:47:64:b7:9d:41:
         54:1f:b4:4a:ce:ba:38:eb:81:28:85:90:17:30:5a:4c:bf:f6:
         ca:ca:72:df:85:8f:33:8e:59:22:f9:26:e8:11:e0:91:7a:92:
         00:a3:c0:89:ca:12:6f:46:0b:7b:fe:28:12:79:4d:22:36:f7:
         30:39:85:db:bf:00:75:e4:f8:73:70:d7:a8:68:3d:35:ab:ff:
         b0:7b:cb:79:0c:5b:7c:ee:eb:1e:d3:9b:d5:e3:42:e3:fd:11:
         d0:5b:87:3c:7b:28:9a:95:74:7c:98:b1:a5:03:f0:43:26:da:
         31:fb:51:10:1b:b5:38:14:de:2f:ce:41:4f:b4:a4:c3:e8:e2:
         9c:14:2f:5d:a7:cd:0e:8f:ed:4c:35:02:cc:97:aa:45:1c:92:
         b9:40:be:8f
-----BEGIN CERTIFICATE-----
MIIDOzCCAiOgAwIBAgIBATANBgkqhkiG9w0BAQsFADAWMRQwEgYDVQQDDAtCbGFj
a05ldCBDQTAeFw0xNzA1MjcxNTA5MjVaFw0yNzA1MjUxNTA5MjVaMBIxEDAOBgNV
BAMMB21hZXN0cm8wggEiMA0GCSqGSIb3DQEBAQUAA4IBDwAwggEKAoIBAQC9Imuy
YumEj2tjzt9kwfAg2JdwQqZ+YaQT6OjLXdirHy5NnkurCiAYNqNxsDwYR4EchShZ
OmJ2SIu7Hu5PUEmr70MtsXnJN98bhs2phjByb5UtT0wCrj6baLXmtkZ/1HEu8aY0
NAIRT5f4Ol/rkinyMHjGr23AZC1PDg65G73lTgl5lgnkIkiIlc+Hz/j6IHMI9kHc
hXt9pS1RtlsSyONkAkD85OTW4S2+g5+0PotwUxk7Hfb8J0cwYc0qDlg5N7dVQJgz
gVL3sqXfqjnyCz67TzCiee9KODO9506vWMYwNNH6kgnBaSDcQxkEeWtxILrAOdhN
ny0GdolcLAKg8GkHAgMBAAGjgZcwgZQwCQYDVR0TBAIwADAdBgNVHQ4EFgQUvyeA
lIyWd/2+VsIraBoloEtyNJwwRgYDVR0jBD8wPYAUqPFWAfTH+3EWhgcgpHuDvaK7
/GqhGqQYMBYxFDASBgNVBAMMC0JsYWNrTmV0IENBggkAuGecxl8N84YwEwYDVR0l
BAwwCgYIKwYBBQUHAwEwCwYDVR0PBAQDAgWgMA0GCSqGSIb3DQEBCwUAA4IBAQC/
zKbCAUW47juj8o46ijKmYetoK6N1N6ZDHelCputOCXoWBL6NVPuEqHu7galJL3WE
1BDdNsrh2nVRuHONScfyAKoNaf30xTiYuFqn1IIEIfX62iFE0vXBXL6mDFwap5wG
8KKB8SDcR2S3nUFUH7RKzro464EohZAXMFpMv/bKynLfhY8zjlki+SboEeCRepIA
o8CJyhJvRgt7/igSeU0iNvcwOYXbvwB15PhzcNeoaD01q/+we8t5DFt87use05vV
40Lj/RHQW4c8eyialXR8mLGlA/BDJtox+1EQG7U4FN4vzkFPtKTD6OKcFC9dp80O
j+1MNQLMl6pFHJK5QL6P
-----END CERTIFICATE-----
